(lp0
F0.00011301040649414062
aF0.020359039306640625
aF0.04046297073364258
aF0.060563087463378906
aF0.08066892623901367
aF0.10077095031738281
aF0.12087106704711914
aF0.14096903800964355
aF0.16106891632080078
aF0.18116998672485352
aF0.20127105712890625
aF0.22137188911437988
aF0.2414710521697998
aF0.2615690231323242
aF0.28166890144348145
aF0.30176711082458496
aF0.3218679428100586
aF0.3419818878173828
aF0.3620789051055908
aF0.38217711448669434
aF0.40227508544921875
aF0.42237401008605957
aF0.4424710273742676
aF0.4625680446624756
aF0.4826669692993164
aF0.5027680397033691
aF0.5228691101074219
aF0.5429689884185791
aF0.5630691051483154
aF0.5831680297851562
aF0.6032660007476807
aF0.6233658790588379
aF0.6434659957885742
aF0.6635630130767822
aF0.683661937713623
aF0.7037649154663086
aF0.7238640785217285
aF0.7439630031585693
aF0.7640628814697266
aF0.7841620445251465
aF0.8042609691619873
aF0.8243610858917236
aF0.8444581031799316
aF0.8645548820495605
aF0.8846540451049805
aF0.9047520160675049
aF0.9248518943786621
aF0.9449710845947266
aF0.9650781154632568
aF0.9851779937744141
aF1.0052790641784668
aF1.0253779888153076
aF1.045478105545044
aF1.0655770301818848
aF1.085679054260254
aF1.1057789325714111
aF1.1258800029754639
aF1.145979881286621
aF1.1660809516906738
aF1.1861810684204102
aF1.2062790393829346
aF1.2263760566711426
aF1.2464749813079834
aF1.2665729522705078
aF1.2866709232330322
aF1.3067700862884521
aF1.3268749713897705
aF1.3469789028167725
aF1.367077112197876
aF1.3871738910675049
aF1.407270908355713
aF1.4273710250854492
aF1.44746994972229
aF1.467566967010498
aF1.4876658916473389
aF1.5077650547027588
aF1.527864933013916
aF1.5479629039764404
aF1.5680599212646484
aF1.5881569385528564
aF1.6090149879455566
aF1.6291170120239258
aF1.6492140293121338
aF1.6693100929260254
aF1.6894090175628662
aF1.7095110416412354
aF1.7296109199523926
aF1.7497079372406006
aF1.7698071002960205
aF1.7899060249328613
aF1.8100059032440186
aF1.830104112625122
aF1.850203037261963
aF1.8703010082244873
aF1.8903980255126953
aF1.9105019569396973
aF1.9306020736694336
aF1.9507019519805908
aF1.9707999229431152
aF1.9908990859985352
aF2.010999917984009
aF2.031101942062378
aF2.051201105117798
aF2.0713019371032715
aF2.0914011001586914
aF2.111501932144165
aF2.131603956222534
aF2.151702880859375
aF2.171802043914795
aF2.191901922225952
aF2.2119898796081543
aF2.232088088989258
aF2.252187967300415
aF2.2722859382629395
aF2.2923851013183594
aF2.312485933303833
aF2.3325889110565186
aF2.3526930809020996
aF2.372792959213257
aF2.392893075942993
aF2.412992000579834
aF2.4330930709838867
aF2.4531919956207275
aF2.4732909202575684
aF2.4933888912200928
aF2.513489007949829
aF2.533590078353882
aF2.5536890029907227
aF2.573786973953247
aF2.593883991241455
aF2.6139869689941406
aF2.6340880393981934
aF2.654186964035034
aF2.6742870807647705
aF2.694382905960083
aF2.7144839763641357
aF2.7345829010009766
aF2.7546820640563965
aF2.7747809886932373
aF2.7948789596557617
aF2.8149778842926025
aF2.835076093673706
aF2.8551759719848633
aF2.875274896621704
aF2.8953731060028076
aF2.9154720306396484
aF2.9355690479278564
aF2.955667018890381
aF2.975766897201538
aF2.9958760738372803
aF3.015974998474121
aF3.0360710620880127
a.(lp1
F-12.5
aF-12.5
aF-0.8
aF-0.8
aF-0.8
aF-0.8
aF-0.8
aF-0.8
aF-0.8
aF-0.8
aF-0.8
aF-0.0
aF-0.0
aF-0.0
aF0.8
aF0.8
aF0.8
aF1.6
aF1.6
aF2.3
aF3.1
aF3.9
aF3.9
aF4.7
aF5.5
aF6.3
aF7.0
aF8.6
aF9.4
aF10.9
aF10.9
aF8.9
aF5.2
aF5.9
aF7.3
aF10.9
aF11.7
aF13.3
aF14.9
aF15.6
aF12.9
aF4.9
aF5.5
aF3.1
aF3.0
aF5.1
aF7.3
aF5.2
aF3.0
aF2.9
aF3.6
aF3.6
aF4.4
aF2.9
aF3.6
aF2.9
aF2.9
aF4.4
aF4.4
aF4.4
aF4.4
aF3.7
aF3.7
aF3.7
aF4.5
aF3.8
aF2.2
aF3.7
aF2.2
aF3.7
aF3.7
aF3.0
aF2.2
aF3.0
aF4.5
aF3.0
aF3.0
aF2.2
aF3.7
aF2.2
aF4.5
aF3.8
aF3.0
aF3.0
aF3.0
aF3.0
aF3.0
aF3.0
aF2.2
aF3.7
aF6.6
aF8.9
aF11.1
aF12.7
aF13.6
aF15.2
aF16.7
aF19.8
aF20.6
aF22.9
aF27.4
aF29.7
aF31.3
aF28.5
aF30.8
aF33.0
aF36.8
aF38.3
aF40.7
aF43.0
aF42.4
aF40.3
aF39.6
aF40.3
aF44.6
aF46.9
aF48.5
aF50.0
aF51.6
aF53.2
aF54.7
aF55.5
aF57.1
aF58.7
aF59.4
aF55.8
aF48.6
aF49.9
aF54.7
aF55.5
aF56.3
aF57.1
aF57.9
aF57.9
aF59.4
aF59.4
aF60.2
aF60.2
aF61.0
aF61.0
aF61.8
aF61.8
aF61.0
aF61.8
aF61.8
aF61.8
aF62.6
aF62.6
aF62.6
aF62.6
aF61.8
aF62.6
a.