(lp0
F0.006565093994140625
aF0.026646137237548828
aF0.04674696922302246
aF0.0668489933013916
aF0.08695006370544434
aF0.10705208778381348
aF0.1271531581878662
aF0.14725112915039062
aF0.16735100746154785
aF0.18745207786560059
aF0.2075510025024414
aF0.22765111923217773
aF0.24775004386901855
aF0.26784801483154297
aF0.2879481315612793
aF0.30804896354675293
aF0.32814908027648926
aF0.3482480049133301
aF0.3683459758758545
aF0.3884460926055908
aF0.40854597091674805
aF0.42864418029785156
aF0.448742151260376
aF0.4688410758972168
aF0.4889400005340576
aF0.5090451240539551
aF0.5291450023651123
aF0.5492470264434814
aF0.5693511962890625
aF0.5894491672515869
aF0.6095471382141113
aF0.6296460628509521
aF0.6497421264648438
aF0.6698410511016846
aF0.6899399757385254
aF0.7100410461425781
aF0.7301411628723145
aF0.7502381801605225
aF0.7703351974487305
aF0.7904331684112549
aF0.8105301856994629
aF0.8306281566619873
aF0.8507239818572998
aF0.8708221912384033
aF0.8909201622009277
aF0.9110181331634521
aF0.9311161041259766
aF0.9512131214141846
aF0.9713091850280762
aF0.9914071559906006
aF1.011505126953125
aF1.0316171646118164
aF1.0517141819000244
aF1.0718111991882324
aF1.0919079780578613
aF1.1120080947875977
aF1.1321079730987549
aF1.1522040367126465
aF1.1723110675811768
aF1.1924090385437012
aF1.2125070095062256
aF1.2326061725616455
aF1.2527031898498535
aF1.272799015045166
aF1.2928950786590576
aF1.312995195388794
aF1.3330931663513184
aF1.3531901836395264
aF1.3732869625091553
aF1.3933830261230469
aF1.4134809970855713
aF1.4335780143737793
aF1.4536771774291992
aF1.473803997039795
aF1.4939000606536865
aF1.5140011310577393
aF1.534101963043213
aF1.554206132888794
aF1.5743069648742676
aF1.594405174255371
aF1.6145050525665283
aF1.6346030235290527
aF1.6547009944915771
aF1.6747980117797852
aF1.6948959827423096
aF1.7149951457977295
aF1.7350940704345703
aF1.755195140838623
aF1.7752971649169922
aF1.7953951358795166
aF1.8154940605163574
aF1.8355920314788818
aF1.8556911945343018
aF1.8757891654968262
aF1.8958890438079834
aF1.9159891605377197
aF1.9360880851745605
aF1.956186056137085
aF1.9762840270996094
aF1.9963810443878174
aF2.0164811611175537
aF2.036579132080078
aF2.0566930770874023
aF2.0767900943756104
aF2.0968880653381348
aF2.1169869899749756
aF2.137087106704712
aF2.1571860313415527
aF2.177284002304077
aF2.197381019592285
aF2.2174789905548096
aF2.2375781536102295
aF2.2576751708984375
aF2.277785062789917
aF2.297888994216919
aF2.317991018295288
aF2.3380930423736572
aF2.358191967010498
aF2.3782920837402344
aF2.398390054702759
aF2.418488025665283
aF2.438589096069336
aF2.458688974380493
aF2.4787890911102295
aF2.4988880157470703
aF2.5189900398254395
aF2.539090156555176
aF2.5591959953308105
aF2.579296112060547
aF2.5993950366973877
aF2.6194961071014404
aF2.6395959854125977
aF2.659696102142334
aF2.679798126220703
aF2.6998960971832275
aF2.7199959754943848
aF2.7400951385498047
aF2.760481119155884
aF2.780588150024414
aF2.800690174102783
aF2.8207921981811523
aF2.8408920764923096
aF2.860992193222046
aF2.881092071533203
aF2.9011921882629395
aF2.9212939739227295
aF2.9413959980010986
aF2.9614980220794678
aF2.9816181659698486
aF3.0017201900482178
aF3.021821975708008
a.(lp1
F-12.5
aF-11.7
aF-0.0
aF-0.0
aF-0.0
aF-0.0
aF-0.8
aF-0.8
aF-0.0
aF-0.8
aF-0.0
aF0.8
aF0.8
aF0.8
aF-0.0
aF1.6
aF1.6
aF2.3
aF2.3
aF3.1
aF3.9
aF3.9
aF3.9
aF5.5
aF6.3
aF6.3
aF7.8
aF9.4
aF9.4
aF10.9
aF11.7
aF12.5
aF13.3
aF8.3
aF4.6
aF6.0
aF10.9
aF12.5
aF13.3
aF8.3
aF3.9
aF5.3
aF6.6
aF6.0
aF3.7
aF4.4
aF6.6
aF3.7
aF3.7
aF2.9
aF5.1
aF2.2
aF3.6
aF4.3
aF4.4
aF2.9
aF3.7
aF2.9
aF3.7
aF2.9
aF3.7
aF3.7
aF3.7
aF3.7
aF3.7
aF4.5
aF2.3
aF3.0
aF3.0
aF3.0
aF3.7
aF3.7
aF2.2
aF3.7
aF3.7
aF3.7
aF2.2
aF2.2
aF2.2
aF3.7
aF5.3
aF3.8
aF3.8
aF2.3
aF3.0
aF3.7
aF5.2
aF6.0
aF5.3
aF7.4
aF6.7
aF9.0
aF9.8
aF9.9
aF11.3
aF12.1
aF12.9
aF15.2
aF14.6
aF14.6
aF16.0
aF18.3
aF18.4
aF16.9
aF17.7
aF19.2
aF19.9
aF20.7
aF21.5
aF23.8
aF25.2
aF28.9
aF30.5
aF32.8
aF31.5
aF27.9
aF27.9
aF30.0
aF29.3
aF31.5
aF33.6
aF35.2
aF36.8
aF37.5
aF39.1
aF39.9
aF41.4
aF42.2
aF42.2
aF36.5
aF33.4
aF32.6
aF33.9
aF36.8
aF37.5
aF37.5
aF38.3
aF38.3
aF39.1
aF39.1
aF39.1
aF39.9
aF39.9
aF39.9
aF39.9
aF40.7
aF40.7
aF40.7
aF40.7
aF40.7
aF40.7
a.